; Function Attrs: mustprogress nofree norecurse nosync nounwind willreturn memory(read, argmem: readwrite, inaccessiblemem: none) uwtable
define internal void @_ZL10reverse_3d6PJ_XYZP8PJconsts(ptr dead_on_unwind noalias writable writeonly sret(%struct.PJ_LPZ) align 8 captures(none) initializes((0, 24)) %0, ptr noundef readonly byval(%struct.PJ_XYZ) align 8 captures(none) %1, ptr noundef readonly captures(none) %2) #2 {
  %.sroa.0.0.copyload = load double, ptr %1, align 8, !tbaa !86
  %.sroa.7.0..sroa_idx = getelementptr inbounds nuw i8, ptr %1, i64 8
  %.sroa.7.0.copyload = load double, ptr %.sroa.7.0..sroa_idx, align 8, !tbaa !86
  %.sroa.9.0..sroa_idx = getelementptr inbounds nuw i8, ptr %1, i64 16
  %.sroa.9.0.copyload = load double, ptr %.sroa.9.0..sroa_idx, align 8, !tbaa !86
  %4 = getelementptr inbounds nuw i8, ptr %2, i64 88
  %5 = load ptr, ptr %4, align 8, !tbaa !50
  %6 = getelementptr inbounds nuw i8, ptr %5, i64 112
  %7 = load double, ptr %5, align 8, !tbaa !59
  %8 = fsub double %.sroa.0.0.copyload, %7
  %9 = getelementptr inbounds nuw i8, ptr %5, i64 8
  %10 = load double, ptr %9, align 8, !tbaa !60
  %11 = fsub double %.sroa.7.0.copyload, %10
  %12 = getelementptr inbounds nuw i8, ptr %5, i64 16
  %13 = load double, ptr %12, align 8, !tbaa !61
  %14 = fsub double %.sroa.9.0.copyload, %13
  %15 = load double, ptr %6, align 8, !tbaa !76
  %16 = getelementptr inbounds nuw i8, ptr %5, i64 120
  %17 = load double, ptr %16, align 8, !tbaa !77
  %18 = fmul double %11, %17
  %19 = tail call double @llvm.fmuladd.f64(double %15, double %8, double %18)
  %20 = getelementptr inbounds nuw i8, ptr %5, i64 128
  %21 = load double, ptr %20, align 8, !tbaa !78
  %22 = tail call double @llvm.fmuladd.f64(double %21, double %14, double %19)
  %23 = getelementptr inbounds nuw i8, ptr %5, i64 136
  %24 = load double, ptr %23, align 8, !tbaa !79
  %25 = getelementptr inbounds nuw i8, ptr %5, i64 144
  %26 = load double, ptr %25, align 8, !tbaa !80
  %27 = fmul double %11, %26
  %28 = tail call double @llvm.fmuladd.f64(double %24, double %8, double %27)
  %29 = getelementptr inbounds nuw i8, ptr %5, i64 152
  %30 = load double, ptr %29, align 8, !tbaa !81
  %31 = tail call double @llvm.fmuladd.f64(double %30, double %14, double %28)
  %32 = getelementptr inbounds nuw i8, ptr %5, i64 160
  %33 = load double, ptr %32, align 8, !tbaa !82
  %34 = getelementptr inbounds nuw i8, ptr %5, i64 168
  %35 = load double, ptr %34, align 8, !tbaa !83
  %36 = fmul double %11, %35
  %37 = tail call double @llvm.fmuladd.f64(double %33, double %8, double %36)
  %38 = getelementptr inbounds nuw i8, ptr %5, i64 176
  %39 = load double, ptr %38, align 8, !tbaa !84
  %40 = tail call double @llvm.fmuladd.f64(double %39, double %14, double %37)
  store double %22, ptr %0, align 8, !tbaa !86
  %.sroa.7.0..sroa_idx2 = getelementptr inbounds nuw i8, ptr %0, i64 8
  store double %31, ptr %.sroa.7.0..sroa_idx2, align 8, !tbaa !86
  %.sroa.9.0..sroa_idx4 = getelementptr inbounds nuw i8, ptr %0, i64 16
  store double %40, ptr %.sroa.9.0..sroa_idx4, align 8, !tbaa !86
  ret void
}